target datalayout = "e-m:e-p270:32:32-p271:32:32-p272:64:64-i64:64-i128:128-f80:128-n8:16:32:64-S128"
target triple = "x86_64-pc-linux-gnu"

%struct.SparseMatrix_struct = type { i32, i32, i32, i32, i32, ptr, ptr, ptr, i32, i8, i64 }

; Function Attrs: nounwind uwtable
define ptr @SparseMatrix_apply_fun(ptr noundef %0, ptr noundef %1) #0 {
  %3 = alloca ptr, align 8
  %4 = alloca ptr, align 8
  %5 = alloca ptr, align 8
  %6 = alloca i32, align 4
  %7 = alloca i32, align 4
  %8 = alloca ptr, align 8
  %9 = alloca i32, align 4
  store ptr %0, ptr %4, align 8, !tbaa !3
  store ptr %1, ptr %5, align 8, !tbaa !87
  call void @llvm.lifetime.start.p0(i64 4, ptr %6) #11
  call void @llvm.lifetime.start.p0(i64 4, ptr %7) #11
  call void @llvm.lifetime.start.p0(i64 8, ptr %8) #11
  %10 = load ptr, ptr %4, align 8, !tbaa !3
  %11 = icmp ne ptr %10, null
  br i1 %11, label %14, label %12

12:                                               ; preds = %2
  %13 = load ptr, ptr %4, align 8, !tbaa !3
  store ptr %13, ptr %3, align 8
  store i32 1, ptr %9, align 4
  br label %76

14:                                               ; preds = %2
  %15 = load ptr, ptr %4, align 8, !tbaa !3
  %16 = getelementptr inbounds nuw %struct.SparseMatrix_struct, ptr %15, i32 0, i32 8
  %17 = load i32, ptr %16, align 8, !tbaa !21
  %18 = icmp ne i32 %17, 0
  br i1 %18, label %19, label %26

19:                                               ; preds = %14
  %20 = load ptr, ptr %4, align 8, !tbaa !3
  %21 = getelementptr inbounds nuw %struct.SparseMatrix_struct, ptr %20, i32 0, i32 4
  %22 = load i32, ptr %21, align 8, !tbaa !20
  %23 = icmp ne i32 %22, 1
  br i1 %23, label %24, label %26

24:                                               ; preds = %19
  %25 = load ptr, ptr %4, align 8, !tbaa !3
  store ptr %25, ptr %3, align 8
  store i32 1, ptr %9, align 4
  br label %76

26:                                               ; preds = %19, %14
  %27 = load ptr, ptr %4, align 8, !tbaa !3
  %28 = getelementptr inbounds nuw %struct.SparseMatrix_struct, ptr %27, i32 0, i32 7
  %29 = load ptr, ptr %28, align 8, !tbaa !27
  store ptr %29, ptr %8, align 8, !tbaa !28
  store i32 0, ptr %6, align 4, !tbaa !17
  br label %30

30:                                               ; preds = %71, %26
  %31 = load i32, ptr %6, align 4, !tbaa !17
  %32 = load ptr, ptr %4, align 8, !tbaa !3
  %33 = getelementptr inbounds nuw %struct.SparseMatrix_struct, ptr %32, i32 0, i32 0
  %34 = load i32, ptr %33, align 8, !tbaa !18
  %35 = icmp slt i32 %31, %34
  br i1 %35, label %36, label %74

36:                                               ; preds = %30
  %37 = load ptr, ptr %4, align 8, !tbaa !3
  %38 = getelementptr inbounds nuw %struct.SparseMatrix_struct, ptr %37, i32 0, i32 5
  %39 = load ptr, ptr %38, align 8, !tbaa !8
  %40 = load i32, ptr %6, align 4, !tbaa !17
  %41 = sext i32 %40 to i64
  %42 = getelementptr inbounds i32, ptr %39, i64 %41
  %43 = load i32, ptr %42, align 4, !tbaa !17
  store i32 %43, ptr %7, align 4, !tbaa !17
  br label %44

44:                                               ; preds = %67, %36
  %45 = load i32, ptr %7, align 4, !tbaa !17
  %46 = load ptr, ptr %4, align 8, !tbaa !3
  %47 = getelementptr inbounds nuw %struct.SparseMatrix_struct, ptr %46, i32 0, i32 5
  %48 = load ptr, ptr %47, align 8, !tbaa !8
  %49 = load i32, ptr %6, align 4, !tbaa !17
  %50 = add nsw i32 %49, 1
  %51 = sext i32 %50 to i64
  %52 = getelementptr inbounds i32, ptr %48, i64 %51
  %53 = load i32, ptr %52, align 4, !tbaa !17
  %54 = icmp slt i32 %45, %53
  br i1 %54, label %55, label %70

55:                                               ; preds = %44
  %56 = load ptr, ptr %5, align 8, !tbaa !87
  %57 = load ptr, ptr %8, align 8, !tbaa !28
  %58 = load i32, ptr %7, align 4, !tbaa !17
  %59 = sext i32 %58 to i64
  %60 = getelementptr inbounds double, ptr %57, i64 %59
  %61 = load double, ptr %60, align 8, !tbaa !30
  %62 = call double %56(double noundef %61)
  %63 = load ptr, ptr %8, align 8, !tbaa !28
  %64 = load i32, ptr %7, align 4, !tbaa !17
  %65 = sext i32 %64 to i64
  %66 = getelementptr inbounds double, ptr %63, i64 %65
  store double %62, ptr %66, align 8, !tbaa !30
  br label %67

67:                                               ; preds = %55
  %68 = load i32, ptr %7, align 4, !tbaa !17
  %69 = add nsw i32 %68, 1
  store i32 %69, ptr %7, align 4, !tbaa !17
  br label %44, !llvm.loop !183

70:                                               ; preds = %44
  br label %71

71:                                               ; preds = %70
  %72 = load i32, ptr %6, align 4, !tbaa !17
  %73 = add nsw i32 %72, 1
  store i32 %73, ptr %6, align 4, !tbaa !17
  br label %30, !llvm.loop !184

74:                                               ; preds = %30
  %75 = load ptr, ptr %4, align 8, !tbaa !3
  store ptr %75, ptr %3, align 8
  store i32 1, ptr %9, align 4
  br label %76

76:                                               ; preds = %74, %24, %12
  call void @llvm.lifetime.end.p0(i64 8, ptr %8) #11
  call void @llvm.lifetime.end.p0(i64 4, ptr %7) #11
  call void @llvm.lifetime.end.p0(i64 4, ptr %6) #11
  %77 = load ptr, ptr %3, align 8
  ret ptr %77
}