; Function Attrs: nounwind uwtable
define noundef ptr @SparseMatrix_apply_fun(ptr noundef readonly returned captures(address_is_null, ret: address, provenance) %0, ptr noundef readonly captures(none) %1) local_unnamed_addr #0 {
  %.not = icmp eq ptr %0, null
  br i1 %.not, label %.loopexit25, label %3

3:                                                ; preds = %2
  %4 = getelementptr inbounds nuw i8, ptr %0, i64 48
  %5 = load i32, ptr %4, align 8, !tbaa !18
  %.not23 = icmp eq i32 %5, 0
  br i1 %.not23, label %9, label %6

6:                                                ; preds = %3
  %7 = getelementptr inbounds nuw i8, ptr %0, i64 16
  %8 = load i32, ptr %7, align 8, !tbaa !17
  %.not24 = icmp eq i32 %8, 1
  br i1 %.not24, label %9, label %.loopexit25

9:                                                ; preds = %6, %3
  %10 = getelementptr inbounds nuw i8, ptr %0, i64 40
  %11 = load ptr, ptr %10, align 8, !tbaa !13
  %12 = load i32, ptr %0, align 8, !tbaa !15
  %13 = icmp sgt i32 %12, 0
  br i1 %13, label %.lr.ph28, label %.loopexit25

.lr.ph28:                                         ; preds = %9
  %14 = getelementptr inbounds nuw i8, ptr %0, i64 24
  %.pre = load ptr, ptr %14, align 8, !tbaa !3
  br label %19

.loopexit.loopexit:                               ; preds = %.lr.ph
  %.pre33 = load i32, ptr %0, align 8, !tbaa !15
  br label %.loopexit

.loopexit:                                        ; preds = %.loopexit.loopexit, %19
  %15 = phi i32 [ %.pre33, %.loopexit.loopexit ], [ %20, %19 ]
  %16 = phi ptr [ %31, %.loopexit.loopexit ], [ %21, %19 ]
  %17 = sext i32 %15 to i64
  %18 = icmp slt i64 %indvars.iv.next31, %17
  br i1 %18, label %19, label %.loopexit25, !llvm.loop !165

19:                                               ; preds = %.lr.ph28, %.loopexit
  %20 = phi i32 [ %12, %.lr.ph28 ], [ %15, %.loopexit ]
  %21 = phi ptr [ %.pre, %.lr.ph28 ], [ %16, %.loopexit ]
  %indvars.iv30 = phi i64 [ 0, %.lr.ph28 ], [ %indvars.iv.next31, %.loopexit ]
  %22 = getelementptr inbounds nuw i32, ptr %21, i64 %indvars.iv30
  %23 = load i32, ptr %22, align 4, !tbaa !19
  %indvars.iv.next31 = add nuw nsw i64 %indvars.iv30, 1
  %24 = getelementptr inbounds nuw i32, ptr %21, i64 %indvars.iv.next31
  %25 = load i32, ptr %24, align 4, !tbaa !19
  %26 = icmp slt i32 %23, %25
  br i1 %26, label %.lr.ph.preheader, label %.loopexit

.lr.ph.preheader:                                 ; preds = %19
  %27 = sext i32 %23 to i64
  br label %.lr.ph

.lr.ph:                                           ; preds = %.lr.ph.preheader, %.lr.ph
  %indvars.iv = phi i64 [ %27, %.lr.ph.preheader ], [ %indvars.iv.next, %.lr.ph ]
  %28 = getelementptr inbounds double, ptr %11, i64 %indvars.iv
  %29 = load double, ptr %28, align 8, !tbaa !25
  %30 = tail call double %1(double noundef %29) #17
  store double %30, ptr %28, align 8, !tbaa !25
  %indvars.iv.next = add nsw i64 %indvars.iv, 1
  %31 = load ptr, ptr %14, align 8, !tbaa !3
  %32 = getelementptr inbounds nuw i32, ptr %31, i64 %indvars.iv.next31
  %33 = load i32, ptr %32, align 4, !tbaa !19
  %34 = sext i32 %33 to i64
  %35 = icmp slt i64 %indvars.iv.next, %34
  br i1 %35, label %.lr.ph, label %.loopexit.loopexit, !llvm.loop !166

.loopexit25:                                      ; preds = %.loopexit, %9, %6, %2
  ret ptr %0
}